#include <math.h>
#include <stdio.h>
#include <stdlib.h>
#include <string.h>
#include <iostream>
using namespace std;

/*
 * 1.cpp
 *
 *  Created on: 2012-11-09
 *      Author: 12162
 *      Function:????
 */



int main() {
	int A, B, C, D, E;
	int rank[6];//ABCDE???
	int words[6];//????????
	for (A = 1; A <= 5; A++) {//????
		for (B = 1; B <= 5; B++) {
			if (A == B)
				continue;
			for (C = 1; C <= 5; C++) {
				if (A == C || B == C)
					continue;
				for (D = 1; D <= 5; D++) {
					if (A == D || B == D || C == D)
						continue;
					E = 15 - A - B - C - D;
					words[1] = (E == 1);
					words[2] = (B == 2);
					words[3] = (A == 5);
					words[4] = (C != 1);
					words[5] = (D == 1);
					rank[A] = 1;//?????????????
					rank[B] = 2;
					rank[C] = 3;
					rank[D] = 4;
					rank[E] = 5;
					if (words[rank[3]] == 0 && words[rank[4]] == 0
							&& words[rank[5]] == 0 && words[rank[1]] == 1
							&& words[rank[2]] == 1 && E != 2 && E != 3) {
						cout << A << " " << B << " " << C << " " << D << " "
								<< E;
					}
				}
			}
		}
	}
	return 0;
}

