; ModuleID = '41/631.cpp'
source_filename = "41/631.cpp"
target datalayout = "e-m:e-p270:32:32-p271:32:32-p272:64:64-i64:64-f80:128-n8:16:32:64-S128"
target triple = "x86_64-pc-linux-gnu"

%"class.std::ios_base::Init" = type { i8 }
%"class.std::basic_ostream" = type { i32 (...)**, %"class.std::basic_ios" }
%"class.std::basic_ios" = type { %"class.std::ios_base", %"class.std::basic_ostream"*, i8, i8, %"class.std::basic_streambuf"*, %"class.std::ctype"*, %"class.std::num_put"*, %"class.std::num_get"* }
%"class.std::ios_base" = type { i32 (...)**, i64, i64, i32, i32, i32, %"struct.std::ios_base::_Callback_list"*, %"struct.std::ios_base::_Words", [8 x %"struct.std::ios_base::_Words"], i32, %"struct.std::ios_base::_Words"*, %"class.std::locale" }
%"struct.std::ios_base::_Callback_list" = type { %"struct.std::ios_base::_Callback_list"*, void (i32, %"class.std::ios_base"*, i32)*, i32, i32 }
%"struct.std::ios_base::_Words" = type { i8*, i64 }
%"class.std::locale" = type { %"class.std::locale::_Impl"* }
%"class.std::locale::_Impl" = type { i32, %"class.std::locale::facet"**, i64, %"class.std::locale::facet"**, i8** }
%"class.std::locale::facet" = type <{ i32 (...)**, i32, [4 x i8] }>
%"class.std::basic_streambuf" = type { i32 (...)**, i8*, i8*, i8*, i8*, i8*, i8*, %"class.std::locale" }
%"class.std::ctype" = type <{ %"class.std::locale::facet.base", [4 x i8], %struct.__locale_struct*, i8, [7 x i8], i32*, i32*, i16*, i8, [256 x i8], [256 x i8], i8, [6 x i8] }>
%"class.std::locale::facet.base" = type <{ i32 (...)**, i32 }>
%struct.__locale_struct = type { [13 x %struct.__locale_data*], i16*, i32*, i32*, [13 x i8*] }
%struct.__locale_data = type opaque
%"class.std::num_put" = type { %"class.std::locale::facet.base", [4 x i8] }
%"class.std::num_get" = type { %"class.std::locale::facet.base", [4 x i8] }

@_ZStL8__ioinit = internal global %"class.std::ios_base::Init" zeroinitializer, align 1
@__dso_handle = external hidden global i8
@_ZSt4cout = external dso_local global %"class.std::basic_ostream", align 8
@.str = private unnamed_addr constant [2 x i8] c" \00", align 1
@llvm.global_ctors = appending global [1 x { i32, void ()*, i8* }] [{ i32, void ()*, i8* } { i32 65535, void ()* @_GLOBAL__sub_I_631.cpp, i8* null }]

; Function Attrs: noinline uwtable
define internal void @__cxx_global_var_init() #0 section ".text.startup" {
  call void @_ZNSt8ios_base4InitC1Ev(%"class.std::ios_base::Init"* @_ZStL8__ioinit)
  %1 = call i32 @__cxa_atexit(void (i8*)* bitcast (void (%"class.std::ios_base::Init"*)* @_ZNSt8ios_base4InitD1Ev to void (i8*)*), i8* getelementptr inbounds (%"class.std::ios_base::Init", %"class.std::ios_base::Init"* @_ZStL8__ioinit, i32 0, i32 0), i8* @__dso_handle) #3
  ret void
}

declare dso_local void @_ZNSt8ios_base4InitC1Ev(%"class.std::ios_base::Init"*) unnamed_addr #1

; Function Attrs: nounwind
declare dso_local void @_ZNSt8ios_base4InitD1Ev(%"class.std::ios_base::Init"*) unnamed_addr #2

; Function Attrs: nounwind
declare dso_local i32 @__cxa_atexit(void (i8*)*, i8*, i8*) #3

; Function Attrs: noinline norecurse uwtable
define dso_local i32 @main() #4 {
  %1 = alloca i32, align 4
  %2 = alloca i32, align 4
  %3 = alloca i32, align 4
  %4 = alloca i32, align 4
  %5 = alloca i32, align 4
  %6 = alloca i32, align 4
  %7 = alloca [6 x i32], align 16
  %8 = alloca [6 x i32], align 16
  store i32 0, i32* %1, align 4
  store i32 1, i32* %2, align 4
  br label %9

9:                                                ; preds = %163, %0
  %10 = load i32, i32* %2, align 4
  %11 = icmp sle i32 %10, 5
  br i1 %11, label %12, label %166

12:                                               ; preds = %9
  store i32 1, i32* %3, align 4
  br label %13

13:                                               ; preds = %159, %12
  %14 = load i32, i32* %3, align 4
  %15 = icmp sle i32 %14, 5
  br i1 %15, label %16, label %162

16:                                               ; preds = %13
  %17 = load i32, i32* %2, align 4
  %18 = load i32, i32* %3, align 4
  %19 = icmp eq i32 %17, %18
  br i1 %19, label %20, label %21

20:                                               ; preds = %16
  br label %159

21:                                               ; preds = %16
  store i32 1, i32* %4, align 4
  br label %22

22:                                               ; preds = %155, %21
  %23 = load i32, i32* %4, align 4
  %24 = icmp sle i32 %23, 5
  br i1 %24, label %25, label %158

25:                                               ; preds = %22
  %26 = load i32, i32* %2, align 4
  %27 = load i32, i32* %4, align 4
  %28 = icmp eq i32 %26, %27
  br i1 %28, label %33, label %29

29:                                               ; preds = %25
  %30 = load i32, i32* %3, align 4
  %31 = load i32, i32* %4, align 4
  %32 = icmp eq i32 %30, %31
  br i1 %32, label %33, label %34

33:                                               ; preds = %29, %25
  br label %155

34:                                               ; preds = %29
  store i32 1, i32* %5, align 4
  br label %35

35:                                               ; preds = %151, %34
  %36 = load i32, i32* %5, align 4
  %37 = icmp sle i32 %36, 5
  br i1 %37, label %38, label %154

38:                                               ; preds = %35
  %39 = load i32, i32* %2, align 4
  %40 = load i32, i32* %5, align 4
  %41 = icmp eq i32 %39, %40
  br i1 %41, label %50, label %42

42:                                               ; preds = %38
  %43 = load i32, i32* %3, align 4
  %44 = load i32, i32* %5, align 4
  %45 = icmp eq i32 %43, %44
  br i1 %45, label %50, label %46

46:                                               ; preds = %42
  %47 = load i32, i32* %4, align 4
  %48 = load i32, i32* %5, align 4
  %49 = icmp eq i32 %47, %48
  br i1 %49, label %50, label %51

50:                                               ; preds = %46, %42, %38
  br label %151

51:                                               ; preds = %46
  %52 = load i32, i32* %2, align 4
  %53 = sub nsw i32 15, %52
  %54 = load i32, i32* %3, align 4
  %55 = sub nsw i32 %53, %54
  %56 = load i32, i32* %4, align 4
  %57 = sub nsw i32 %55, %56
  %58 = load i32, i32* %5, align 4
  %59 = sub nsw i32 %57, %58
  store i32 %59, i32* %6, align 4
  %60 = load i32, i32* %6, align 4
  %61 = icmp eq i32 %60, 1
  %62 = zext i1 %61 to i32
  %63 = getelementptr inbounds [6 x i32], [6 x i32]* %8, i64 0, i64 1
  store i32 %62, i32* %63, align 4
  %64 = load i32, i32* %3, align 4
  %65 = icmp eq i32 %64, 2
  %66 = zext i1 %65 to i32
  %67 = getelementptr inbounds [6 x i32], [6 x i32]* %8, i64 0, i64 2
  store i32 %66, i32* %67, align 8
  %68 = load i32, i32* %2, align 4
  %69 = icmp eq i32 %68, 5
  %70 = zext i1 %69 to i32
  %71 = getelementptr inbounds [6 x i32], [6 x i32]* %8, i64 0, i64 3
  store i32 %70, i32* %71, align 4
  %72 = load i32, i32* %4, align 4
  %73 = icmp ne i32 %72, 1
  %74 = zext i1 %73 to i32
  %75 = getelementptr inbounds [6 x i32], [6 x i32]* %8, i64 0, i64 4
  store i32 %74, i32* %75, align 16
  %76 = load i32, i32* %5, align 4
  %77 = icmp eq i32 %76, 1
  %78 = zext i1 %77 to i32
  %79 = getelementptr inbounds [6 x i32], [6 x i32]* %8, i64 0, i64 5
  store i32 %78, i32* %79, align 4
  %80 = load i32, i32* %2, align 4
  %81 = sext i32 %80 to i64
  %82 = getelementptr inbounds [6 x i32], [6 x i32]* %7, i64 0, i64 %81
  store i32 1, i32* %82, align 4
  %83 = load i32, i32* %3, align 4
  %84 = sext i32 %83 to i64
  %85 = getelementptr inbounds [6 x i32], [6 x i32]* %7, i64 0, i64 %84
  store i32 2, i32* %85, align 4
  %86 = load i32, i32* %4, align 4
  %87 = sext i32 %86 to i64
  %88 = getelementptr inbounds [6 x i32], [6 x i32]* %7, i64 0, i64 %87
  store i32 3, i32* %88, align 4
  %89 = load i32, i32* %5, align 4
  %90 = sext i32 %89 to i64
  %91 = getelementptr inbounds [6 x i32], [6 x i32]* %7, i64 0, i64 %90
  store i32 4, i32* %91, align 4
  %92 = load i32, i32* %6, align 4
  %93 = sext i32 %92 to i64
  %94 = getelementptr inbounds [6 x i32], [6 x i32]* %7, i64 0, i64 %93
  store i32 5, i32* %94, align 4
  %95 = getelementptr inbounds [6 x i32], [6 x i32]* %7, i64 0, i64 3
  %96 = load i32, i32* %95, align 4
  %97 = sext i32 %96 to i64
  %98 = getelementptr inbounds [6 x i32], [6 x i32]* %8, i64 0, i64 %97
  %99 = load i32, i32* %98, align 4
  %100 = icmp eq i32 %99, 0
  br i1 %100, label %101, label %150

101:                                              ; preds = %51
  %102 = getelementptr inbounds [6 x i32], [6 x i32]* %7, i64 0, i64 4
  %103 = load i32, i32* %102, align 16
  %104 = sext i32 %103 to i64
  %105 = getelementptr inbounds [6 x i32], [6 x i32]* %8, i64 0, i64 %104
  %106 = load i32, i32* %105, align 4
  %107 = icmp eq i32 %106, 0
  br i1 %107, label %108, label %150

108:                                              ; preds = %101
  %109 = getelementptr inbounds [6 x i32], [6 x i32]* %7, i64 0, i64 5
  %110 = load i32, i32* %109, align 4
  %111 = sext i32 %110 to i64
  %112 = getelementptr inbounds [6 x i32], [6 x i32]* %8, i64 0, i64 %111
  %113 = load i32, i32* %112, align 4
  %114 = icmp eq i32 %113, 0
  br i1 %114, label %115, label %150

115:                                              ; preds = %108
  %116 = getelementptr inbounds [6 x i32], [6 x i32]* %7, i64 0, i64 1
  %117 = load i32, i32* %116, align 4
  %118 = sext i32 %117 to i64
  %119 = getelementptr inbounds [6 x i32], [6 x i32]* %8, i64 0, i64 %118
  %120 = load i32, i32* %119, align 4
  %121 = icmp eq i32 %120, 1
  br i1 %121, label %122, label %150

122:                                              ; preds = %115
  %123 = getelementptr inbounds [6 x i32], [6 x i32]* %7, i64 0, i64 2
  %124 = load i32, i32* %123, align 8
  %125 = sext i32 %124 to i64
  %126 = getelementptr inbounds [6 x i32], [6 x i32]* %8, i64 0, i64 %125
  %127 = load i32, i32* %126, align 4
  %128 = icmp eq i32 %127, 1
  br i1 %128, label %129, label %150

129:                                              ; preds = %122
  %130 = load i32, i32* %6, align 4
  %131 = icmp ne i32 %130, 2
  br i1 %131, label %132, label %150

132:                                              ; preds = %129
  %133 = load i32, i32* %6, align 4
  %134 = icmp ne i32 %133, 3
  br i1 %134, label %135, label %150

135:                                              ; preds = %132
  %136 = load i32, i32* %2, align 4
  %137 = call dereferenceable(272) %"class.std::basic_ostream"* @_ZNSolsEi(%"class.std::basic_ostream"* @_ZSt4cout, i32 %136)
  %138 = call dereferenceable(272) %"class.std::basic_ostream"* @_ZStlsISt11char_traitsIcEERSt13basic_ostreamIcT_ES5_PKc(%"class.std::basic_ostream"* dereferenceable(272) %137, i8* getelementptr inbounds ([2 x i8], [2 x i8]* @.str, i64 0, i64 0))
  %139 = load i32, i32* %3, align 4
  %140 = call dereferenceable(272) %"class.std::basic_ostream"* @_ZNSolsEi(%"class.std::basic_ostream"* %138, i32 %139)
  %141 = call dereferenceable(272) %"class.std::basic_ostream"* @_ZStlsISt11char_traitsIcEERSt13basic_ostreamIcT_ES5_PKc(%"class.std::basic_ostream"* dereferenceable(272) %140, i8* getelementptr inbounds ([2 x i8], [2 x i8]* @.str, i64 0, i64 0))
  %142 = load i32, i32* %4, align 4
  %143 = call dereferenceable(272) %"class.std::basic_ostream"* @_ZNSolsEi(%"class.std::basic_ostream"* %141, i32 %142)
  %144 = call dereferenceable(272) %"class.std::basic_ostream"* @_ZStlsISt11char_traitsIcEERSt13basic_ostreamIcT_ES5_PKc(%"class.std::basic_ostream"* dereferenceable(272) %143, i8* getelementptr inbounds ([2 x i8], [2 x i8]* @.str, i64 0, i64 0))
  %145 = load i32, i32* %5, align 4
  %146 = call dereferenceable(272) %"class.std::basic_ostream"* @_ZNSolsEi(%"class.std::basic_ostream"* %144, i32 %145)
  %147 = call dereferenceable(272) %"class.std::basic_ostream"* @_ZStlsISt11char_traitsIcEERSt13basic_ostreamIcT_ES5_PKc(%"class.std::basic_ostream"* dereferenceable(272) %146, i8* getelementptr inbounds ([2 x i8], [2 x i8]* @.str, i64 0, i64 0))
  %148 = load i32, i32* %6, align 4
  %149 = call dereferenceable(272) %"class.std::basic_ostream"* @_ZNSolsEi(%"class.std::basic_ostream"* %147, i32 %148)
  br label %150

150:                                              ; preds = %135, %132, %129, %122, %115, %108, %101, %51
  br label %151

151:                                              ; preds = %150, %50
  %152 = load i32, i32* %5, align 4
  %153 = add nsw i32 %152, 1
  store i32 %153, i32* %5, align 4
  br label %35

154:                                              ; preds = %35
  br label %155

155:                                              ; preds = %154, %33
  %156 = load i32, i32* %4, align 4
  %157 = add nsw i32 %156, 1
  store i32 %157, i32* %4, align 4
  br label %22

158:                                              ; preds = %22
  br label %159

159:                                              ; preds = %158, %20
  %160 = load i32, i32* %3, align 4
  %161 = add nsw i32 %160, 1
  store i32 %161, i32* %3, align 4
  br label %13

162:                                              ; preds = %13
  br label %163

163:                                              ; preds = %162
  %164 = load i32, i32* %2, align 4
  %165 = add nsw i32 %164, 1
  store i32 %165, i32* %2, align 4
  br label %9

166:                                              ; preds = %9
  ret i32 0
}

declare dso_local dereferenceable(272) %"class.std::basic_ostream"* @_ZStlsISt11char_traitsIcEERSt13basic_ostreamIcT_ES5_PKc(%"class.std::basic_ostream"* dereferenceable(272), i8*) #1

declare dso_local dereferenceable(272) %"class.std::basic_ostream"* @_ZNSolsEi(%"class.std::basic_ostream"*, i32) #1

; Function Attrs: noinline uwtable
define internal void @_GLOBAL__sub_I_631.cpp() #0 section ".text.startup" {
  call void @__cxx_global_var_init()
  ret void
}


!llvm.module.flags = !{!0}
!llvm.ident = !{!1}

!0 = !{i32 1, !"wchar_size", i32 4}
!1 = !{!"clang version 10.0.0-4ubuntu1 "}
